; Function Attrs: nounwind sspstrong uwtable
define internal noundef i64 @econv_insert_output(i64 noundef %0, i64 noundef %1) #0 {
  %3 = alloca i64, align 8
  %4 = alloca i64, align 8
  %5 = alloca i64, align 8
  store i64 %1, ptr %5, align 8, !tbaa !22
  %6 = tail call ptr @rb_check_typeddata(i64 noundef %0, ptr noundef nonnull @econv_data_type) #22
  %.not.i = icmp eq ptr %6, null
  br i1 %.not.i, label %7, label %check_econv.exit

7:                                                ; preds = %2
  %8 = load i64, ptr @rb_eTypeError, align 8, !tbaa !22
  tail call void (i64, ptr, ...) @rb_raise(i64 noundef %8, ptr noundef nonnull @.str.119) #23
  unreachable

check_econv.exit:                                 ; preds = %2
  %9 = call i64 @rb_string_value(ptr noundef nonnull %5) #22
  %10 = getelementptr inbounds nuw i8, ptr %6, i64 104
  %11 = load ptr, ptr %10, align 8, !tbaa !49
  %12 = icmp eq ptr %11, null
  br i1 %12, label %rb_econv_encoding_to_insert_output.exit, label %13

13:                                               ; preds = %check_econv.exit
  %14 = load ptr, ptr %11, align 8, !tbaa !65
  %15 = getelementptr inbounds nuw i8, ptr %14, i64 68
  %16 = load i32, ptr %15, align 4, !tbaa !67
  %17 = icmp eq i32 %16, 2
  br i1 %17, label %18, label %20

18:                                               ; preds = %13
  %19 = load ptr, ptr %14, align 8, !tbaa !12
  br label %rb_econv_encoding_to_insert_output.exit

20:                                               ; preds = %13
  %21 = getelementptr inbounds nuw i8, ptr %14, i64 8
  %22 = load ptr, ptr %21, align 8, !tbaa !18
  br label %rb_econv_encoding_to_insert_output.exit

rb_econv_encoding_to_insert_output.exit:          ; preds = %check_econv.exit, %18, %20
  %.0.i = phi ptr [ %19, %18 ], [ %22, %20 ], [ @.str.2, %check_econv.exit ]
  %23 = load i64, ptr %5, align 8, !tbaa !22
  %24 = call ptr @rb_enc_find(ptr noundef %.0.i) #22
  %25 = call i64 @rb_enc_from_encoding(ptr noundef %24) #22
  call void @llvm.lifetime.start.p0(i64 8, ptr nonnull %3)
  store i64 %25, ptr %3, align 8, !tbaa !22
  call void @llvm.lifetime.start.p0(i64 8, ptr nonnull %4) #22
  store i64 %23, ptr %4, align 8, !tbaa !22
  %26 = call fastcc i32 @str_transcode0(i32 noundef 1, ptr noundef nonnull %3, ptr noundef %4, i32 noundef 0, i64 noundef 4)
  %27 = load i64, ptr %4, align 8, !tbaa !22
  %28 = call fastcc i64 @encoded_dup(i64 noundef %27, i64 noundef %23, i32 noundef %26)
  call void @llvm.lifetime.end.p0(i64 8, ptr nonnull %4) #22
  call void @llvm.lifetime.end.p0(i64 8, ptr nonnull %3)
  store i64 %28, ptr %5, align 8, !tbaa !22
  %29 = inttoptr i64 %28 to ptr
  %30 = load i64, ptr %29, align 8, !tbaa !33, !noalias !239
  %31 = and i64 %30, 8192
  %.not.i.i = icmp eq i64 %31, 0
  %32 = getelementptr inbounds nuw i8, ptr %29, i64 24
  br i1 %.not.i.i, label %RSTRING_PTR.exit, label %33

33:                                               ; preds = %rb_econv_encoding_to_insert_output.exit
  %.sroa.2.0.copyload.i = load ptr, ptr %32, align 8
  br label %RSTRING_PTR.exit

RSTRING_PTR.exit:                                 ; preds = %rb_econv_encoding_to_insert_output.exit, %33
  %.sroa.2.0.i = phi ptr [ %.sroa.2.0.copyload.i, %33 ], [ %32, %rb_econv_encoding_to_insert_output.exit ]
  %34 = getelementptr inbounds nuw i8, ptr %29, i64 16
  %35 = load i64, ptr %34, align 8, !tbaa !114
  %36 = call i32 @rb_econv_insert_output(ptr noundef nonnull %6, ptr noundef %.sroa.2.0.i, i64 noundef %35, ptr noundef %.0.i)
  %37 = icmp eq i32 %36, -1
  br i1 %37, label %38, label %40

38:                                               ; preds = %RSTRING_PTR.exit
  %39 = load i64, ptr @rb_eArgError, align 8, !tbaa !22
  call void (i64, ptr, ...) @rb_raise(i64 noundef %39, ptr noundef nonnull @.str.128) #23
  unreachable

40:                                               ; preds = %RSTRING_PTR.exit
  ret i64 4
}